target datalayout = "e-m:e-p270:32:32-p271:32:32-p272:64:64-i64:64-i128:128-f80:128-n8:16:32:64-S128"
target triple = "x86_64-pc-linux-gnu"

%"class.o3dgc::Arithmetic_Codec" = type <{ ptr, ptr, ptr, i32, i32, i32, i32, i32, [4 x i8] }>
%"class.o3dgc::Static_Bit_Model" = type { i32 }

; Function Attrs: inlinehint mustprogress nounwind uwtable
define linkonce_odr hidden void @_ZN5o3dgc16Arithmetic_Codec19renorm_enc_intervalEv(ptr noundef nonnull align 8 dereferenceable(44) %0) #2 comdat align 2 {
  %2 = alloca ptr, align 8
  store ptr %0, ptr %2, align 8
  %3 = load ptr, ptr %2, align 8
  br label %4

4:                                                ; preds = %15, %1
  %5 = getelementptr inbounds nuw %"class.o3dgc::Arithmetic_Codec", ptr %3, i32 0, i32 3
  %6 = load i32, ptr %5, align 8
  %7 = lshr i32 %6, 24
  %8 = trunc i32 %7 to i8
  %9 = getelementptr inbounds nuw %"class.o3dgc::Arithmetic_Codec", ptr %3, i32 0, i32 2
  %10 = load ptr, ptr %9, align 8
  %11 = getelementptr inbounds nuw i8, ptr %10, i32 1
  store ptr %11, ptr %9, align 8
  store i8 %8, ptr %10, align 1
  %12 = getelementptr inbounds nuw %"class.o3dgc::Arithmetic_Codec", ptr %3, i32 0, i32 3
  %13 = load i32, ptr %12, align 8
  %14 = shl i32 %13, 8
  store i32 %14, ptr %12, align 8
  br label %15

15:                                               ; preds = %4
  %16 = getelementptr inbounds nuw %"class.o3dgc::Arithmetic_Codec", ptr %3, i32 0, i32 5
  %17 = load i32, ptr %16, align 8
  %18 = shl i32 %17, 8
  store i32 %18, ptr %16, align 8
  %19 = icmp ult i32 %18, 16777216
  br i1 %19, label %4, label %20, !llvm.loop !5

20:                                               ; preds = %15
  ret void
}

; Function Attrs: inlinehint mustprogress nounwind uwtable
define linkonce_odr hidden void @_ZN5o3dgc16Arithmetic_Codec15propagate_carryEv(ptr noundef nonnull align 8 dereferenceable(44) %0) #2 comdat align 2 {
  %2 = alloca ptr, align 8
  %3 = alloca ptr, align 8
  store ptr %0, ptr %2, align 8
  %4 = load ptr, ptr %2, align 8
  call void @llvm.lifetime.start.p0(i64 8, ptr %3) #12
  %5 = getelementptr inbounds nuw %"class.o3dgc::Arithmetic_Codec", ptr %4, i32 0, i32 2
  %6 = load ptr, ptr %5, align 8
  %7 = getelementptr inbounds i8, ptr %6, i64 -1
  store ptr %7, ptr %3, align 8
  br label %8

8:                                                ; preds = %15, %1
  %9 = load ptr, ptr %3, align 8
  %10 = load i8, ptr %9, align 1
  %11 = zext i8 %10 to i32
  %12 = icmp eq i32 %11, 255
  br i1 %12, label %13, label %18

13:                                               ; preds = %8
  %14 = load ptr, ptr %3, align 8
  store i8 0, ptr %14, align 1
  br label %15

15:                                               ; preds = %13
  %16 = load ptr, ptr %3, align 8
  %17 = getelementptr inbounds i8, ptr %16, i32 -1
  store ptr %17, ptr %3, align 8
  br label %8, !llvm.loop !3

18:                                               ; preds = %8
  %19 = load ptr, ptr %3, align 8
  %20 = load i8, ptr %19, align 1
  %21 = add i8 %20, 1
  store i8 %21, ptr %19, align 1
  call void @llvm.lifetime.end.p0(i64 8, ptr %3) #12
  ret void
}

; Function Attrs: mustprogress uwtable
define hidden void @_ZN5o3dgc16Arithmetic_Codec6encodeEjRNS_16Static_Bit_ModelE(ptr noundef nonnull align 8 dereferenceable(44) %0, i32 noundef %1, ptr noundef nonnull align 4 dereferenceable(4) %2) #0 align 2 {
  %4 = alloca ptr, align 8
  %5 = alloca i32, align 4
  %6 = alloca ptr, align 8
  %7 = alloca i32, align 4
  %8 = alloca i32, align 4
  store ptr %0, ptr %4, align 8
  store i32 %1, ptr %5, align 4
  store ptr %2, ptr %6, align 8
  %9 = load ptr, ptr %4, align 8
  call void @llvm.lifetime.start.p0(i64 4, ptr %7) #12
  %10 = load ptr, ptr %6, align 8
  %11 = getelementptr inbounds nuw %"class.o3dgc::Static_Bit_Model", ptr %10, i32 0, i32 0
  %12 = load i32, ptr %11, align 4
  %13 = getelementptr inbounds nuw %"class.o3dgc::Arithmetic_Codec", ptr %9, i32 0, i32 5
  %14 = load i32, ptr %13, align 8
  %15 = lshr i32 %14, 13
  %16 = mul i32 %12, %15
  store i32 %16, ptr %7, align 4
  %17 = load i32, ptr %5, align 4
  %18 = icmp eq i32 %17, 0
  br i1 %18, label %19, label %22

19:                                               ; preds = %3
  %20 = load i32, ptr %7, align 4
  %21 = getelementptr inbounds nuw %"class.o3dgc::Arithmetic_Codec", ptr %9, i32 0, i32 5
  store i32 %20, ptr %21, align 8
  br label %39

22:                                               ; preds = %3
  call void @llvm.lifetime.start.p0(i64 4, ptr %8) #12
  %23 = getelementptr inbounds nuw %"class.o3dgc::Arithmetic_Codec", ptr %9, i32 0, i32 3
  %24 = load i32, ptr %23, align 8
  store i32 %24, ptr %8, align 4
  %25 = load i32, ptr %7, align 4
  %26 = getelementptr inbounds nuw %"class.o3dgc::Arithmetic_Codec", ptr %9, i32 0, i32 3
  %27 = load i32, ptr %26, align 8
  %28 = add i32 %27, %25
  store i32 %28, ptr %26, align 8
  %29 = load i32, ptr %7, align 4
  %30 = getelementptr inbounds nuw %"class.o3dgc::Arithmetic_Codec", ptr %9, i32 0, i32 5
  %31 = load i32, ptr %30, align 8
  %32 = sub i32 %31, %29
  store i32 %32, ptr %30, align 8
  %33 = load i32, ptr %8, align 4
  %34 = getelementptr inbounds nuw %"class.o3dgc::Arithmetic_Codec", ptr %9, i32 0, i32 3
  %35 = load i32, ptr %34, align 8
  %36 = icmp ugt i32 %33, %35
  br i1 %36, label %37, label %38

37:                                               ; preds = %22
  call void @_ZN5o3dgc16Arithmetic_Codec15propagate_carryEv(ptr noundef nonnull align 8 dereferenceable(44) %9)
  br label %38

38:                                               ; preds = %37, %22
  call void @llvm.lifetime.end.p0(i64 4, ptr %8) #12
  br label %39

39:                                               ; preds = %38, %19
  %40 = getelementptr inbounds nuw %"class.o3dgc::Arithmetic_Codec", ptr %9, i32 0, i32 5
  %41 = load i32, ptr %40, align 8
  %42 = icmp ult i32 %41, 16777216
  br i1 %42, label %43, label %44

43:                                               ; preds = %39
  call void @_ZN5o3dgc16Arithmetic_Codec19renorm_enc_intervalEv(ptr noundef nonnull align 8 dereferenceable(44) %9)
  br label %44

44:                                               ; preds = %43, %39
  call void @llvm.lifetime.end.p0(i64 4, ptr %7) #12
  ret void
}