; Function Attrs: mustprogress nofree norecurse nosync nounwind memory(readwrite, inaccessiblemem: none) uwtable
define hidden void @_ZN5o3dgc16Arithmetic_Codec6encodeEjRNS_16Static_Bit_ModelE(ptr noundef nonnull align 8 captures(none) dereferenceable(44) %0, i32 noundef %1, ptr noundef nonnull readonly align 4 captures(none) dereferenceable(4) %2) local_unnamed_addr #0 align 2 {
  %4 = load i32, ptr %2, align 4
  %5 = getelementptr inbounds nuw i8, ptr %0, i64 32
  %6 = load i32, ptr %5, align 8
  %7 = lshr i32 %6, 13
  %8 = mul i32 %7, %4
  %9 = icmp eq i32 %1, 0
  br i1 %9, label %10, label %11

10:                                               ; preds = %3
  store i32 %8, ptr %5, align 8
  br label %25

11:                                               ; preds = %3
  %12 = getelementptr inbounds nuw i8, ptr %0, i64 24
  %13 = load i32, ptr %12, align 8
  %14 = add i32 %13, %8
  store i32 %14, ptr %12, align 8
  %15 = sub i32 %6, %8
  store i32 %15, ptr %5, align 8
  %16 = icmp ugt i32 %13, %14
  br i1 %16, label %17, label %25

17:                                               ; preds = %11
  %18 = getelementptr inbounds nuw i8, ptr %0, i64 16
  %19 = load ptr, ptr %18, align 8
  %.05.i = getelementptr inbounds i8, ptr %19, i64 -1
  %20 = load i8, ptr %.05.i, align 1
  %21 = icmp eq i8 %20, -1
  br i1 %21, label %.lr.ph.i, label %_ZN5o3dgc16Arithmetic_Codec15propagate_carryEv.exit

.lr.ph.i:                                         ; preds = %17, %.lr.ph.i
  %.06.i = phi ptr [ %.0.i, %.lr.ph.i ], [ %.05.i, %17 ]
  store i8 0, ptr %.06.i, align 1
  %.0.i = getelementptr inbounds i8, ptr %.06.i, i64 -1
  %22 = load i8, ptr %.0.i, align 1
  %23 = icmp eq i8 %22, -1
  br i1 %23, label %.lr.ph.i, label %_ZN5o3dgc16Arithmetic_Codec15propagate_carryEv.exit, !llvm.loop !3

_ZN5o3dgc16Arithmetic_Codec15propagate_carryEv.exit: ; preds = %.lr.ph.i, %17
  %.0.lcssa.i = phi ptr [ %.05.i, %17 ], [ %.0.i, %.lr.ph.i ]
  %.lcssa.i = phi i8 [ %20, %17 ], [ %22, %.lr.ph.i ]
  %24 = add nuw i8 %.lcssa.i, 1
  store i8 %24, ptr %.0.lcssa.i, align 1
  %.pr = load i32, ptr %5, align 8
  br label %25

25:                                               ; preds = %11, %_ZN5o3dgc16Arithmetic_Codec15propagate_carryEv.exit, %10
  %26 = phi i32 [ %15, %11 ], [ %.pr, %_ZN5o3dgc16Arithmetic_Codec15propagate_carryEv.exit ], [ %8, %10 ]
  %27 = icmp ult i32 %26, 16777216
  br i1 %27, label %28, label %_ZN5o3dgc16Arithmetic_Codec19renorm_enc_intervalEv.exit

28:                                               ; preds = %25
  %29 = getelementptr inbounds nuw i8, ptr %0, i64 24
  %30 = getelementptr inbounds nuw i8, ptr %0, i64 16
  %.pre.i = load i32, ptr %29, align 8
  br label %31

31:                                               ; preds = %31, %28
  %32 = phi i32 [ %38, %31 ], [ %.pre.i, %28 ]
  %33 = lshr i32 %32, 24
  %34 = trunc nuw i32 %33 to i8
  %35 = load ptr, ptr %30, align 8
  %36 = getelementptr inbounds nuw i8, ptr %35, i64 1
  store ptr %36, ptr %30, align 8
  store i8 %34, ptr %35, align 1
  %37 = load i32, ptr %29, align 8
  %38 = shl i32 %37, 8
  store i32 %38, ptr %29, align 8
  %39 = load i32, ptr %5, align 8
  %40 = shl i32 %39, 8
  store i32 %40, ptr %5, align 8
  %41 = icmp ult i32 %40, 16777216
  br i1 %41, label %31, label %_ZN5o3dgc16Arithmetic_Codec19renorm_enc_intervalEv.exit, !llvm.loop !5

_ZN5o3dgc16Arithmetic_Codec19renorm_enc_intervalEv.exit: ; preds = %31, %25
  ret void
}